; Function Attrs: nounwind uwtable
define void @glfwSetWindowPos(ptr noundef %0, i32 noundef %1, i32 noundef %2) local_unnamed_addr #0 {
  %4 = load i32, ptr @_glfw, align 8, !tbaa !138
  %.not = icmp eq i32 %4, 0
  br i1 %.not, label %5, label %6

5:                                                ; preds = %3
  tail call void (i32, ptr, ...) @_glfwInputError(i32 noundef 65537, ptr noundef null) #7
  br label %11

6:                                                ; preds = %3
  %7 = getelementptr inbounds nuw i8, ptr %0, i64 80
  %8 = load ptr, ptr %7, align 8, !tbaa !137
  %.not4 = icmp eq ptr %8, null
  br i1 %.not4, label %9, label %11

9:                                                ; preds = %6
  %10 = load ptr, ptr getelementptr inbounds nuw (i8, ptr @_glfw, i64 312), align 8, !tbaa !229
  tail call void %10(ptr noundef nonnull %0, i32 noundef %1, i32 noundef %2) #7
  br label %11

11:                                               ; preds = %6, %9, %5
  ret void
}